target datalayout = "e-m:e-p270:32:32-p271:32:32-p272:64:64-i64:64-i128:128-f80:128-n8:16:32:64-S128"
target triple = "x86_64-pc-linux-gnu"

%"struct.zmq::options_t" = type { i32, i32, i64, i8, [256 x i8], i32, i32, i32, i32, i32, i32, i32, i32, i8, %"struct.zmq::atomic_value_t", i32, i32, i32, i32, i32, i32, i64, i32, i32, i8, i32, i8, i8, i8, i8, i8, %"class.std::__cxx11::basic_string", %"class.std::__cxx11::basic_string", %"class.std::__cxx11::basic_string", i32, i32, i32, i32, %"class.std::vector", %"class.std::set", %"class.std::set", %"class.std::set.6", i32, i32, %"class.std::__cxx11::basic_string", %"class.std::__cxx11::basic_string", %"class.std::__cxx11::basic_string", [32 x i8], [32 x i8], [32 x i8], %"class.std::__cxx11::basic_string", %"class.std::__cxx11::basic_string", i32, i32, i8, i32, i8, i32, i8, i16, i32, i32, i32, %"class.std::__cxx11::basic_string", i8, i8, i8, i32, i32, i8, i32, %"class.std::map", i32, %"class.std::__cxx11::basic_string", %"class.std::__cxx11::basic_string", %"class.std::__cxx11::basic_string", %"class.std::__cxx11::basic_string", i8, %"class.std::vector.17", i8, %"class.std::vector.17", i8, %"class.std::vector.17", i8, i32, i8, i32, i32, i32, i32, i32, i8, i32 }
%"struct.zmq::atomic_value_t" = type { %"struct.std::atomic" }
%"struct.std::atomic" = type { %"struct.std::__atomic_base" }
%"struct.std::__atomic_base" = type { i32 }
%"class.std::vector" = type { %"struct.std::_Vector_base" }
%"struct.std::_Vector_base" = type { %"struct.std::_Vector_base<zmq::tcp_address_mask_t, std::allocator<zmq::tcp_address_mask_t>>::_Vector_impl" }
%"struct.std::_Vector_base<zmq::tcp_address_mask_t, std::allocator<zmq::tcp_address_mask_t>>::_Vector_impl" = type { %"struct.std::_Vector_base<zmq::tcp_address_mask_t, std::allocator<zmq::tcp_address_mask_t>>::_Vector_impl_data" }
%"struct.std::_Vector_base<zmq::tcp_address_mask_t, std::allocator<zmq::tcp_address_mask_t>>::_Vector_impl_data" = type { ptr, ptr, ptr }
%"class.std::set" = type { %"class.std::_Rb_tree" }
%"class.std::_Rb_tree" = type { %"struct.std::_Rb_tree<unsigned int, unsigned int, std::_Identity<unsigned int>, std::less<unsigned int>>::_Rb_tree_impl" }
%"struct.std::_Rb_tree<unsigned int, unsigned int, std::_Identity<unsigned int>, std::less<unsigned int>>::_Rb_tree_impl" = type { [8 x i8], %"struct.std::_Rb_tree_header" }
%"struct.std::_Rb_tree_header" = type { %"struct.std::_Rb_tree_node_base", i64 }
%"struct.std::_Rb_tree_node_base" = type { i32, ptr, ptr, ptr }
%"class.std::set.6" = type { %"class.std::_Rb_tree.7" }
%"class.std::_Rb_tree.7" = type { %"struct.std::_Rb_tree<int, int, std::_Identity<int>, std::less<int>>::_Rb_tree_impl" }
%"struct.std::_Rb_tree<int, int, std::_Identity<int>, std::less<int>>::_Rb_tree_impl" = type { [8 x i8], %"struct.std::_Rb_tree_header" }
%"class.std::map" = type { %"class.std::_Rb_tree.12" }
%"class.std::_Rb_tree.12" = type { %"struct.std::_Rb_tree<std::__cxx11::basic_string<char>, std::pair<const std::__cxx11::basic_string<char>, std::__cxx11::basic_string<char>>, std::_Select1st<std::pair<const std::__cxx11::basic_string<char>, std::__cxx11::basic_string<char>>>, std::less<std::__cxx11::basic_string<char>>>::_Rb_tree_impl" }
%"struct.std::_Rb_tree<std::__cxx11::basic_string<char>, std::pair<const std::__cxx11::basic_string<char>, std::__cxx11::basic_string<char>>, std::_Select1st<std::pair<const std::__cxx11::basic_string<char>, std::__cxx11::basic_string<char>>>, std::less<std::__cxx11::basic_string<char>>>::_Rb_tree_impl" = type { [8 x i8], %"struct.std::_Rb_tree_header" }
%"class.std::__cxx11::basic_string" = type { %"struct.std::__cxx11::basic_string<char>::_Alloc_hider", i64, %union.anon }
%"struct.std::__cxx11::basic_string<char>::_Alloc_hider" = type { ptr }
%union.anon = type { i64, [8 x i8] }
%"class.std::vector.17" = type { %"struct.std::_Vector_base.18" }
%"struct.std::_Vector_base.18" = type { %"struct.std::_Vector_base<unsigned char, std::allocator<unsigned char>>::_Vector_impl" }
%"struct.std::_Vector_base<unsigned char, std::allocator<unsigned char>>::_Vector_impl" = type { %"struct.std::_Vector_base<unsigned char, std::allocator<unsigned char>>::_Vector_impl_data" }
%"struct.std::_Vector_base<unsigned char, std::allocator<unsigned char>>::_Vector_impl_data" = type { ptr, ptr, ptr }
%"class.zmq::session_base_t" = type { %"class.zmq::own_t.base", %"class.zmq::io_object_t", %"struct.zmq::i_pipe_events", i8, ptr, ptr, %"class.std::set.30", i8, i8, ptr, ptr, ptr, i8, ptr, %"class.std::__cxx11::basic_string" }
%"class.zmq::own_t.base" = type <{ %"class.zmq::object_t.base", [4 x i8], %"struct.zmq::options_t", i8, [7 x i8], %"class.zmq::atomic_counter_t", i64, ptr, %"class.std::set.24", i32 }>
%"class.zmq::object_t.base" = type <{ ptr, ptr, i32 }>
%"class.zmq::atomic_counter_t" = type { %"struct.std::atomic.22", [4 x i8] }
%"struct.std::atomic.22" = type { %"struct.std::__atomic_base.23" }
%"struct.std::__atomic_base.23" = type { i32 }
%"class.std::set.24" = type { %"class.std::_Rb_tree.25" }
%"class.std::_Rb_tree.25" = type { %"struct.std::_Rb_tree<zmq::own_t *, zmq::own_t *, std::_Identity<zmq::own_t *>, std::less<zmq::own_t *>>::_Rb_tree_impl" }
%"struct.std::_Rb_tree<zmq::own_t *, zmq::own_t *, std::_Identity<zmq::own_t *>, std::less<zmq::own_t *>>::_Rb_tree_impl" = type { [8 x i8], %"struct.std::_Rb_tree_header" }
%"class.zmq::io_object_t" = type { %"struct.zmq::i_poll_events", ptr }
%"struct.zmq::i_poll_events" = type { ptr }
%"struct.zmq::i_pipe_events" = type { ptr }
%"class.std::set.30" = type { %"class.std::_Rb_tree.31" }
%"class.std::_Rb_tree.31" = type { %"struct.std::_Rb_tree<zmq::pipe_t *, zmq::pipe_t *, std::_Identity<zmq::pipe_t *>, std::less<zmq::pipe_t *>>::_Rb_tree_impl" }
%"struct.std::_Rb_tree<zmq::pipe_t *, zmq::pipe_t *, std::_Identity<zmq::pipe_t *>, std::less<zmq::pipe_t *>>::_Rb_tree_impl" = type { [8 x i8], %"struct.std::_Rb_tree_header" }

@stderr = external global ptr, align 8
@.str.1 = private unnamed_addr constant [112 x i8] c"generated/home/dtcxzyw/WorkSpace/Projects/compilers/llvm-opt-benchmark/bench/libzmq/libzmq/src/session_base.cpp\00", align 1
@.str.3 = private unnamed_addr constant [30 x i8] c"Assertion failed: %s (%s:%d)\0A\00", align 1
@.str.19 = private unnamed_addr constant [10 x i8] c"!_pending\00", align 1
@.str.20 = private unnamed_addr constant [19 x i8] c"!_has_linger_timer\00", align 1

; Function Attrs: mustprogress nounwind uwtable
define linkonce_odr noundef zeroext i1 @_ZNKSt8_Rb_treeIPN3zmq6pipe_tES2_St9_IdentityIS2_ESt4lessIS2_ESaIS2_EE5emptyEv(ptr noundef nonnull align 8 dereferenceable(48) %0) #5 comdat align 2 {
  %2 = alloca ptr, align 8
  store ptr %0, ptr %2, align 8, !tbaa !156
  %3 = load ptr, ptr %2, align 8
  %4 = getelementptr inbounds nuw %"class.std::_Rb_tree.31", ptr %3, i32 0, i32 0
  %5 = getelementptr inbounds i8, ptr %4, i64 8
  %6 = getelementptr inbounds nuw %"struct.std::_Rb_tree_header", ptr %5, i32 0, i32 1
  %7 = load i64, ptr %6, align 8, !tbaa !172
  %8 = icmp eq i64 %7, 0
  ret i1 %8
}

; Function Attrs: mustprogress nounwind uwtable
define linkonce_odr noundef zeroext i1 @_ZNKSt3setIPN3zmq6pipe_tESt4lessIS2_ESaIS2_EE5emptyEv(ptr noundef nonnull align 8 dereferenceable(48) %0) #5 comdat align 2 {
  %2 = alloca ptr, align 8
  store ptr %0, ptr %2, align 8, !tbaa !105
  %3 = load ptr, ptr %2, align 8
  %4 = getelementptr inbounds nuw %"class.std::set.30", ptr %3, i32 0, i32 0
  %5 = call noundef zeroext i1 @_ZNKSt8_Rb_treeIPN3zmq6pipe_tES2_St9_IdentityIS2_ESt4lessIS2_ESaIS2_EE5emptyEv(ptr noundef nonnull align 8 dereferenceable(48) %4) #21
  ret i1 %5
}

; Function Attrs: mustprogress uwtable
define void @_ZN3zmq14session_base_t12process_termEi(ptr noundef nonnull align 8 dereferenceable(1624) %0, i32 noundef %1) unnamed_addr #0 align 2 {
  %3 = alloca ptr, align 8
  %4 = alloca i32, align 4
  store ptr %0, ptr %3, align 8, !tbaa !16
  store i32 %1, ptr %4, align 4, !tbaa !60
  %5 = load ptr, ptr %3, align 8
  br label %6

6:                                                ; preds = %2
  %7 = getelementptr inbounds nuw %"class.zmq::session_base_t", ptr %5, i32 0, i32 8
  %8 = load i8, ptr %7, align 1, !tbaa !97, !range !57, !noundef !58
  %9 = trunc i8 %8 to i1
  %10 = xor i1 %9, true
  %11 = xor i1 %10, true
  %12 = zext i1 %11 to i64
  %13 = call i64 @llvm.expect.i64(i64 %12, i64 0)
  %14 = icmp ne i64 %13, 0
  br i1 %14, label %15, label %20

15:                                               ; preds = %6
  %16 = load ptr, ptr @stderr, align 8, !tbaa !61
  %17 = call i32 (ptr, ptr, ...) @fprintf(ptr noundef %16, ptr noundef @.str.3, ptr noundef @.str.19, ptr noundef @.str.1, i32 noundef 485) #21
  %18 = load ptr, ptr @stderr, align 8, !tbaa !61
  %19 = call i32 @fflush(ptr noundef %18)
  call void @_ZN3zmq9zmq_abortEPKc(ptr noundef @.str.19)
  br label %20

20:                                               ; preds = %15, %6
  br label %21

21:                                               ; preds = %20
  %22 = getelementptr inbounds nuw %"class.zmq::session_base_t", ptr %5, i32 0, i32 4
  %23 = load ptr, ptr %22, align 8, !tbaa !94
  %24 = icmp ne ptr %23, null
  br i1 %24, label %33, label %25

25:                                               ; preds = %21
  %26 = getelementptr inbounds nuw %"class.zmq::session_base_t", ptr %5, i32 0, i32 5
  %27 = load ptr, ptr %26, align 8, !tbaa !95
  %28 = icmp ne ptr %27, null
  br i1 %28, label %33, label %29

29:                                               ; preds = %25
  %30 = getelementptr inbounds nuw %"class.zmq::session_base_t", ptr %5, i32 0, i32 6
  %31 = call noundef zeroext i1 @_ZNKSt3setIPN3zmq6pipe_tESt4lessIS2_ESaIS2_EE5emptyEv(ptr noundef nonnull align 8 dereferenceable(48) %30) #21
  br i1 %31, label %32, label %33

32:                                               ; preds = %29
  call void @_ZN3zmq5own_t12process_termEi(ptr noundef nonnull align 8 dereferenceable(1444) %5, i32 noundef 0)
  br label %81

33:                                               ; preds = %29, %25, %21
  %34 = getelementptr inbounds nuw %"class.zmq::session_base_t", ptr %5, i32 0, i32 8
  store i8 1, ptr %34, align 1, !tbaa !97
  %35 = getelementptr inbounds nuw %"class.zmq::session_base_t", ptr %5, i32 0, i32 4
  %36 = load ptr, ptr %35, align 8, !tbaa !94
  %37 = icmp ne ptr %36, null
  br i1 %37, label %38, label %74

38:                                               ; preds = %33
  %39 = load i32, ptr %4, align 4, !tbaa !60
  %40 = icmp sgt i32 %39, 0
  br i1 %40, label %41, label %61

41:                                               ; preds = %38
  br label %42

42:                                               ; preds = %41
  %43 = getelementptr inbounds nuw %"class.zmq::session_base_t", ptr %5, i32 0, i32 12
  %44 = load i8, ptr %43, align 8, !tbaa !101, !range !57, !noundef !58
  %45 = trunc i8 %44 to i1
  %46 = xor i1 %45, true
  %47 = xor i1 %46, true
  %48 = zext i1 %47 to i64
  %49 = call i64 @llvm.expect.i64(i64 %48, i64 0)
  %50 = icmp ne i64 %49, 0
  br i1 %50, label %51, label %56

51:                                               ; preds = %42
  %52 = load ptr, ptr @stderr, align 8, !tbaa !61
  %53 = call i32 (ptr, ptr, ...) @fprintf(ptr noundef %52, ptr noundef @.str.3, ptr noundef @.str.20, ptr noundef @.str.1, i32 noundef 502) #21
  %54 = load ptr, ptr @stderr, align 8, !tbaa !61
  %55 = call i32 @fflush(ptr noundef %54)
  call void @_ZN3zmq9zmq_abortEPKc(ptr noundef @.str.20)
  br label %56

56:                                               ; preds = %51, %42
  br label %57

57:                                               ; preds = %56
  %58 = getelementptr inbounds i8, ptr %5, i64 1448
  %59 = load i32, ptr %4, align 4, !tbaa !60
  call void @_ZN3zmq11io_object_t9add_timerEii(ptr noundef nonnull align 8 dereferenceable(16) %58, i32 noundef %59, i32 noundef 32)
  %60 = getelementptr inbounds nuw %"class.zmq::session_base_t", ptr %5, i32 0, i32 12
  store i8 1, ptr %60, align 8, !tbaa !101
  br label %61

61:                                               ; preds = %57, %38
  %62 = getelementptr inbounds nuw %"class.zmq::session_base_t", ptr %5, i32 0, i32 4
  %63 = load ptr, ptr %62, align 8, !tbaa !94
  %64 = load i32, ptr %4, align 4, !tbaa !60
  %65 = icmp ne i32 %64, 0
  call void @_ZN3zmq6pipe_t9terminateEb(ptr noundef nonnull align 8 dereferenceable(328) %63, i1 noundef zeroext %65)
  %66 = getelementptr inbounds nuw %"class.zmq::session_base_t", ptr %5, i32 0, i32 9
  %67 = load ptr, ptr %66, align 8, !tbaa !98
  %68 = icmp ne ptr %67, null
  br i1 %68, label %73, label %69

69:                                               ; preds = %61
  %70 = getelementptr inbounds nuw %"class.zmq::session_base_t", ptr %5, i32 0, i32 4
  %71 = load ptr, ptr %70, align 8, !tbaa !94
  %72 = call noundef zeroext i1 @_ZN3zmq6pipe_t10check_readEv(ptr noundef nonnull align 8 dereferenceable(328) %71)
  br label %73

73:                                               ; preds = %69, %61
  br label %74

74:                                               ; preds = %73, %33
  %75 = getelementptr inbounds nuw %"class.zmq::session_base_t", ptr %5, i32 0, i32 5
  %76 = load ptr, ptr %75, align 8, !tbaa !95
  %77 = icmp ne ptr %76, null
  br i1 %77, label %78, label %81

78:                                               ; preds = %74
  %79 = getelementptr inbounds nuw %"class.zmq::session_base_t", ptr %5, i32 0, i32 5
  %80 = load ptr, ptr %79, align 8, !tbaa !95
  call void @_ZN3zmq6pipe_t9terminateEb(ptr noundef nonnull align 8 dereferenceable(328) %80, i1 noundef zeroext false)
  br label %81

81:                                               ; preds = %32, %78, %74
  ret void
}