; Function Attrs: mustprogress uwtable
define void @_ZN3zmq14session_base_t12process_termEi(ptr noundef nonnull align 8 dereferenceable(1624) %0, i32 noundef %1) unnamed_addr #0 align 2 {
  %3 = getelementptr inbounds nuw i8, ptr %0, i64 1545
  %4 = load i8, ptr %3, align 1, !tbaa !90, !range !47, !noundef !48
  %5 = trunc nuw i8 %4 to i1
  br i1 %5, label %6, label %11, !prof !104

6:                                                ; preds = %2
  %7 = load ptr, ptr @stderr, align 8, !tbaa !52
  %8 = tail call i32 (ptr, ptr, ...) @fprintf(ptr noundef %7, ptr noundef nonnull @.str.3, ptr noundef nonnull @.str.19, ptr noundef nonnull @.str.1, i32 noundef 485) #27
  %9 = load ptr, ptr @stderr, align 8, !tbaa !52
  %10 = tail call i32 @fflush(ptr noundef %9)
  tail call void @_ZN3zmq9zmq_abortEPKc(ptr noundef nonnull @.str.19)
  br label %11

11:                                               ; preds = %2, %6
  %12 = getelementptr inbounds nuw i8, ptr %0, i64 1480
  %13 = load ptr, ptr %12, align 8, !tbaa !101
  %.not = icmp eq ptr %13, null
  %14 = getelementptr inbounds nuw i8, ptr %0, i64 1488
  %15 = load ptr, ptr %14, align 8
  %.not4 = icmp eq ptr %15, null
  %or.cond = select i1 %.not, i1 %.not4, i1 false
  br i1 %or.cond, label %16, label %21

16:                                               ; preds = %11
  %17 = getelementptr inbounds nuw i8, ptr %0, i64 1536
  %18 = load i64, ptr %17, align 8, !tbaa !88
  %19 = icmp eq i64 %18, 0
  br i1 %19, label %20, label %.thread

.thread:                                          ; preds = %16
  store i8 1, ptr %3, align 1, !tbaa !90
  br label %thread-pre-split

20:                                               ; preds = %16
  tail call void @_ZN3zmq5own_t12process_termEi(ptr noundef nonnull align 8 dereferenceable(1444) %0, i32 noundef 0)
  br label %46

21:                                               ; preds = %11
  store i8 1, ptr %3, align 1, !tbaa !90
  br i1 %.not, label %43, label %22

22:                                               ; preds = %21
  %23 = icmp sgt i32 %1, 0
  br i1 %23, label %24, label %35

24:                                               ; preds = %22
  %25 = getelementptr inbounds nuw i8, ptr %0, i64 1576
  %26 = load i8, ptr %25, align 8, !tbaa !94, !range !47, !noundef !48
  %27 = trunc nuw i8 %26 to i1
  br i1 %27, label %28, label %33, !prof !104

28:                                               ; preds = %24
  %29 = load ptr, ptr @stderr, align 8, !tbaa !52
  %30 = tail call i32 (ptr, ptr, ...) @fprintf(ptr noundef %29, ptr noundef nonnull @.str.3, ptr noundef nonnull @.str.20, ptr noundef nonnull @.str.1, i32 noundef 502) #27
  %31 = load ptr, ptr @stderr, align 8, !tbaa !52
  %32 = tail call i32 @fflush(ptr noundef %31)
  tail call void @_ZN3zmq9zmq_abortEPKc(ptr noundef nonnull @.str.20)
  br label %33

33:                                               ; preds = %24, %28
  %34 = getelementptr inbounds nuw i8, ptr %0, i64 1448
  tail call void @_ZN3zmq11io_object_t9add_timerEii(ptr noundef nonnull align 8 dereferenceable(16) %34, i32 noundef %1, i32 noundef 32)
  store i8 1, ptr %25, align 8, !tbaa !94
  %.pre = load ptr, ptr %12, align 8, !tbaa !101
  br label %35

35:                                               ; preds = %33, %22
  %36 = phi ptr [ %.pre, %33 ], [ %13, %22 ]
  %37 = icmp ne i32 %1, 0
  tail call void @_ZN3zmq6pipe_t9terminateEb(ptr noundef nonnull align 8 dereferenceable(328) %36, i1 noundef zeroext %37)
  %38 = getelementptr inbounds nuw i8, ptr %0, i64 1552
  %39 = load ptr, ptr %38, align 8, !tbaa !91
  %.not6 = icmp eq ptr %39, null
  br i1 %.not6, label %40, label %thread-pre-split

40:                                               ; preds = %35
  %41 = load ptr, ptr %12, align 8, !tbaa !101
  %42 = tail call noundef zeroext i1 @_ZN3zmq6pipe_t10check_readEv(ptr noundef nonnull align 8 dereferenceable(328) %41)
  br label %thread-pre-split

thread-pre-split:                                 ; preds = %40, %35, %.thread
  %.pr = load ptr, ptr %14, align 8, !tbaa !103
  br label %43

43:                                               ; preds = %thread-pre-split, %21
  %44 = phi ptr [ %.pr, %thread-pre-split ], [ %15, %21 ]
  %.not7 = icmp eq ptr %44, null
  br i1 %.not7, label %46, label %45

45:                                               ; preds = %43
  tail call void @_ZN3zmq6pipe_t9terminateEb(ptr noundef nonnull align 8 dereferenceable(328) %44, i1 noundef zeroext false)
  br label %46

46:                                               ; preds = %45, %43, %20
  ret void
}